target datalayout = "e-m:e-p270:32:32-p271:32:32-p272:64:64-i64:64-i128:128-f80:128-n8:16:32:64-S128"
target triple = "x86_64-pc-linux-gnu"

%"class.llvm::RopePieceBTreeIterator" = type <{ ptr, ptr, i32, [4 x i8] }>
%"class.llvm::StringRef" = type { ptr, i64 }
%"class.llvm::RewriteBuffer" = type { %"class.llvm::DeltaTree", %"class.llvm::RewriteRope" }
%"class.llvm::DeltaTree" = type { ptr }
%"class.llvm::RewriteRope" = type <{ %"class.llvm::RopePieceBTree", %"class.llvm::IntrusiveRefCntPtr", i32, [4 x i8] }>
%"class.llvm::RopePieceBTree" = type { ptr }
%"class.llvm::IntrusiveRefCntPtr" = type { ptr }
%"class.llvm::raw_ostream" = type { ptr, i32, ptr, ptr, ptr, i8, i32 }
%"struct.llvm::RopePiece" = type { %"class.llvm::IntrusiveRefCntPtr", i32, i32 }
%"struct.llvm::RopeRefCountString" = type { i32, [1 x i8] }

; Function Attrs: mustprogress nounwind uwtable
define linkonce_odr hidden void @_ZN4llvm22RopePieceBTreeIteratorC2Ev(ptr noundef nonnull align 8 dereferenceable(20) %0) unnamed_addr #0 comdat align 2 {
  %2 = alloca ptr, align 8
  store ptr %0, ptr %2, align 8
  %3 = load ptr, ptr %2, align 8
  %4 = getelementptr inbounds nuw %"class.llvm::RopePieceBTreeIterator", ptr %3, i32 0, i32 0
  store ptr null, ptr %4, align 8
  %5 = getelementptr inbounds nuw %"class.llvm::RopePieceBTreeIterator", ptr %3, i32 0, i32 1
  store ptr null, ptr %5, align 8
  %6 = getelementptr inbounds nuw %"class.llvm::RopePieceBTreeIterator", ptr %3, i32 0, i32 2
  store i32 0, ptr %6, align 8
  ret void
}

; Function Attrs: mustprogress nounwind uwtable
define linkonce_odr hidden noundef ptr @_ZNK4llvm18IntrusiveRefCntPtrINS_18RopeRefCountStringEEptEv(ptr noundef nonnull align 8 dereferenceable(8) %0) #0 comdat align 2 {
  %2 = alloca ptr, align 8
  store ptr %0, ptr %2, align 8
  %3 = load ptr, ptr %2, align 8
  %4 = getelementptr inbounds nuw %"class.llvm::IntrusiveRefCntPtr", ptr %3, i32 0, i32 0
  %5 = load ptr, ptr %4, align 8
  ret ptr %5
}

; Function Attrs: mustprogress nounwind uwtable
define linkonce_odr hidden void @_ZNK4llvm14RopePieceBTree3endEv(ptr dead_on_unwind noalias writable sret(%"class.llvm::RopePieceBTreeIterator") align 8 %0, ptr noundef nonnull align 8 dereferenceable(8) %1) #0 comdat align 2 {
  %3 = alloca ptr, align 8
  store ptr %1, ptr %3, align 8
  call void @llvm.memset.p0.i64(ptr align 8 %0, i8 0, i64 24, i1 false)
  call void @_ZN4llvm22RopePieceBTreeIteratorC2Ev(ptr noundef nonnull align 8 dereferenceable(20) %0) #5
  ret void
}

; Function Attrs: mustprogress nounwind uwtable
define linkonce_odr hidden void @_ZNK4llvm14RopePieceBTree5beginEv(ptr dead_on_unwind noalias writable sret(%"class.llvm::RopePieceBTreeIterator") align 8 %0, ptr noundef nonnull align 8 dereferenceable(8) %1) #0 comdat align 2 {
  %3 = alloca ptr, align 8
  store ptr %1, ptr %3, align 8
  %4 = load ptr, ptr %3, align 8
  %5 = getelementptr inbounds nuw %"class.llvm::RopePieceBTree", ptr %4, i32 0, i32 0
  %6 = load ptr, ptr %5, align 8
  call void @_ZN4llvm22RopePieceBTreeIteratorC1EPKv(ptr noundef nonnull align 8 dereferenceable(20) %0, ptr noundef %6)
  ret void
}

; Function Attrs: mustprogress nounwind uwtable
define linkonce_odr hidden noundef ptr @_ZNK4llvm9StringRef4dataEv(ptr noundef nonnull align 8 dereferenceable(16) %0) #0 comdat align 2 {
  %2 = alloca ptr, align 8
  store ptr %0, ptr %2, align 8
  %3 = load ptr, ptr %2, align 8
  %4 = getelementptr inbounds nuw %"class.llvm::StringRef", ptr %3, i32 0, i32 0
  %5 = load ptr, ptr %4, align 8
  ret ptr %5
}

; Function Attrs: mustprogress nounwind uwtable
define linkonce_odr hidden noundef i64 @_ZNK4llvm9StringRef4sizeEv(ptr noundef nonnull align 8 dereferenceable(16) %0) #0 comdat align 2 {
  %2 = alloca ptr, align 8
  store ptr %0, ptr %2, align 8
  %3 = load ptr, ptr %2, align 8
  %4 = getelementptr inbounds nuw %"class.llvm::StringRef", ptr %3, i32 0, i32 1
  %5 = load i64, ptr %4, align 8
  ret i64 %5
}

; Function Attrs: mustprogress nounwind uwtable
define linkonce_odr hidden void @_ZN4llvm9StringRefC2EPKcm(ptr noundef nonnull align 8 dereferenceable(16) %0, ptr noundef %1, i64 noundef %2) unnamed_addr #0 comdat align 2 {
  %4 = alloca ptr, align 8
  %5 = alloca ptr, align 8
  %6 = alloca i64, align 8
  store ptr %0, ptr %4, align 8
  store ptr %1, ptr %5, align 8
  store i64 %2, ptr %6, align 8
  %7 = load ptr, ptr %4, align 8
  %8 = getelementptr inbounds nuw %"class.llvm::StringRef", ptr %7, i32 0, i32 0
  %9 = load ptr, ptr %5, align 8
  store ptr %9, ptr %8, align 8
  %10 = getelementptr inbounds nuw %"class.llvm::StringRef", ptr %7, i32 0, i32 1
  %11 = load i64, ptr %6, align 8
  store i64 %11, ptr %10, align 8
  ret void
}

; Function Attrs: mustprogress nounwind uwtable
define linkonce_odr hidden noundef i32 @_ZNK4llvm9RopePiece4sizeEv(ptr noundef nonnull align 8 dereferenceable(16) %0) #0 comdat align 2 {
  %2 = alloca ptr, align 8
  store ptr %0, ptr %2, align 8
  %3 = load ptr, ptr %2, align 8
  %4 = getelementptr inbounds nuw %"struct.llvm::RopePiece", ptr %3, i32 0, i32 2
  %5 = load i32, ptr %4, align 4
  %6 = getelementptr inbounds nuw %"struct.llvm::RopePiece", ptr %3, i32 0, i32 1
  %7 = load i32, ptr %6, align 8
  %8 = sub i32 %5, %7
  ret i32 %8
}

; Function Attrs: mustprogress nounwind uwtable
define linkonce_odr hidden noundef nonnull align 1 dereferenceable(1) ptr @_ZNK4llvm9RopePieceixEj(ptr noundef nonnull align 8 dereferenceable(16) %0, i32 noundef %1) #0 comdat align 2 {
  %3 = alloca ptr, align 8
  %4 = alloca i32, align 4
  store ptr %0, ptr %3, align 8
  store i32 %1, ptr %4, align 4
  %5 = load ptr, ptr %3, align 8
  %6 = getelementptr inbounds nuw %"struct.llvm::RopePiece", ptr %5, i32 0, i32 0
  %7 = call noundef ptr @_ZNK4llvm18IntrusiveRefCntPtrINS_18RopeRefCountStringEEptEv(ptr noundef nonnull align 8 dereferenceable(8) %6)
  %8 = getelementptr inbounds nuw %"struct.llvm::RopeRefCountString", ptr %7, i32 0, i32 1
  %9 = load i32, ptr %4, align 4
  %10 = getelementptr inbounds nuw %"struct.llvm::RopePiece", ptr %5, i32 0, i32 1
  %11 = load i32, ptr %10, align 8
  %12 = add i32 %9, %11
  %13 = zext i32 %12 to i64
  %14 = getelementptr inbounds [1 x i8], ptr %8, i64 0, i64 %13
  ret ptr %14
}

; Function Attrs: mustprogress nounwind uwtable
define linkonce_odr hidden noundef zeroext i1 @_ZNK4llvm22RopePieceBTreeIteratoreqERKS0_(ptr noundef nonnull align 8 dereferenceable(20) %0, ptr noundef nonnull align 8 dereferenceable(20) %1) #0 comdat align 2 {
  %3 = alloca ptr, align 8
  %4 = alloca ptr, align 8
  store ptr %0, ptr %3, align 8
  store ptr %1, ptr %4, align 8
  %5 = load ptr, ptr %3, align 8
  %6 = getelementptr inbounds nuw %"class.llvm::RopePieceBTreeIterator", ptr %5, i32 0, i32 1
  %7 = load ptr, ptr %6, align 8
  %8 = load ptr, ptr %4, align 8
  %9 = getelementptr inbounds nuw %"class.llvm::RopePieceBTreeIterator", ptr %8, i32 0, i32 1
  %10 = load ptr, ptr %9, align 8
  %11 = icmp eq ptr %7, %10
  br i1 %11, label %12, label %19

12:                                               ; preds = %2
  %13 = getelementptr inbounds nuw %"class.llvm::RopePieceBTreeIterator", ptr %5, i32 0, i32 2
  %14 = load i32, ptr %13, align 8
  %15 = load ptr, ptr %4, align 8
  %16 = getelementptr inbounds nuw %"class.llvm::RopePieceBTreeIterator", ptr %15, i32 0, i32 2
  %17 = load i32, ptr %16, align 8
  %18 = icmp eq i32 %14, %17
  br label %19

19:                                               ; preds = %12, %2
  %20 = phi i1 [ false, %2 ], [ %18, %12 ]
  ret i1 %20
}

; Function Attrs: mustprogress nounwind uwtable
define linkonce_odr hidden void @_ZNK4llvm11RewriteRope3endEv(ptr dead_on_unwind noalias writable sret(%"class.llvm::RopePieceBTreeIterator") align 8 %0, ptr noundef nonnull align 8 dereferenceable(20) %1) #0 comdat align 2 {
  %3 = alloca ptr, align 8
  store ptr %1, ptr %3, align 8
  %4 = load ptr, ptr %3, align 8
  %5 = getelementptr inbounds nuw %"class.llvm::RewriteRope", ptr %4, i32 0, i32 0
  call void @_ZNK4llvm14RopePieceBTree3endEv(ptr dead_on_unwind writable sret(%"class.llvm::RopePieceBTreeIterator") align 8 %0, ptr noundef nonnull align 8 dereferenceable(8) %5)
  ret void
}

; Function Attrs: mustprogress nounwind uwtable
define linkonce_odr hidden void @_ZNK4llvm11RewriteRope5beginEv(ptr dead_on_unwind noalias writable sret(%"class.llvm::RopePieceBTreeIterator") align 8 %0, ptr noundef nonnull align 8 dereferenceable(20) %1) #0 comdat align 2 {
  %3 = alloca ptr, align 8
  store ptr %1, ptr %3, align 8
  %4 = load ptr, ptr %3, align 8
  %5 = getelementptr inbounds nuw %"class.llvm::RewriteRope", ptr %4, i32 0, i32 0
  call void @_ZNK4llvm14RopePieceBTree5beginEv(ptr dead_on_unwind writable sret(%"class.llvm::RopePieceBTreeIterator") align 8 %0, ptr noundef nonnull align 8 dereferenceable(8) %5)
  ret void
}

; Function Attrs: mustprogress nounwind uwtable
define linkonce_odr hidden noundef nonnull align 8 dereferenceable(48) ptr @_ZN4llvm11raw_ostreamlsENS_9StringRefE(ptr noundef nonnull align 8 dereferenceable(48) %0, ptr %1, i64 %2) #0 comdat align 2 {
  %4 = alloca ptr, align 8
  %5 = alloca %"class.llvm::StringRef", align 8
  %6 = alloca ptr, align 8
  %7 = alloca i64, align 8
  %8 = getelementptr inbounds nuw { ptr, i64 }, ptr %5, i32 0, i32 0
  store ptr %1, ptr %8, align 8
  %9 = getelementptr inbounds nuw { ptr, i64 }, ptr %5, i32 0, i32 1
  store i64 %2, ptr %9, align 8
  store ptr %0, ptr %6, align 8
  %10 = load ptr, ptr %6, align 8
  %11 = call noundef i64 @_ZNK4llvm9StringRef4sizeEv(ptr noundef nonnull align 8 dereferenceable(16) %5)
  store i64 %11, ptr %7, align 8
  %12 = load i64, ptr %7, align 8
  %13 = getelementptr inbounds nuw %"class.llvm::raw_ostream", ptr %10, i32 0, i32 3
  %14 = load ptr, ptr %13, align 8
  %15 = getelementptr inbounds nuw %"class.llvm::raw_ostream", ptr %10, i32 0, i32 4
  %16 = load ptr, ptr %15, align 8
  %17 = ptrtoint ptr %14 to i64
  %18 = ptrtoint ptr %16 to i64
  %19 = sub i64 %17, %18
  %20 = icmp ugt i64 %12, %19
  br i1 %20, label %21, label %25

21:                                               ; preds = %3
  %22 = call noundef ptr @_ZNK4llvm9StringRef4dataEv(ptr noundef nonnull align 8 dereferenceable(16) %5)
  %23 = load i64, ptr %7, align 8
  %24 = call noundef nonnull align 8 dereferenceable(48) ptr @_ZN4llvm11raw_ostream5writeEPKcm(ptr noundef nonnull align 8 dereferenceable(48) %10, ptr noundef %22, i64 noundef %23)
  store ptr %24, ptr %4, align 8
  br label %38

25:                                               ; preds = %3
  %26 = load i64, ptr %7, align 8
  %27 = icmp ne i64 %26, 0
  br i1 %27, label %28, label %37

28:                                               ; preds = %25
  %29 = getelementptr inbounds nuw %"class.llvm::raw_ostream", ptr %10, i32 0, i32 4
  %30 = load ptr, ptr %29, align 8
  %31 = call noundef ptr @_ZNK4llvm9StringRef4dataEv(ptr noundef nonnull align 8 dereferenceable(16) %5)
  %32 = load i64, ptr %7, align 8
  call void @llvm.memcpy.p0.p0.i64(ptr align 1 %30, ptr align 1 %31, i64 %32, i1 false)
  %33 = load i64, ptr %7, align 8
  %34 = getelementptr inbounds nuw %"class.llvm::raw_ostream", ptr %10, i32 0, i32 4
  %35 = load ptr, ptr %34, align 8
  %36 = getelementptr inbounds i8, ptr %35, i64 %33
  store ptr %36, ptr %34, align 8
  br label %37

37:                                               ; preds = %28, %25
  store ptr %10, ptr %4, align 8
  br label %38

38:                                               ; preds = %37, %21
  %39 = load ptr, ptr %4, align 8
  ret ptr %39
}

; Function Attrs: mustprogress nounwind uwtable
define linkonce_odr hidden { ptr, i64 } @_ZNK4llvm22RopePieceBTreeIterator5pieceEv(ptr noundef nonnull align 8 dereferenceable(20) %0) #0 comdat align 2 {
  %2 = alloca %"class.llvm::StringRef", align 8
  %3 = alloca ptr, align 8
  store ptr %0, ptr %3, align 8
  %4 = load ptr, ptr %3, align 8
  %5 = getelementptr inbounds nuw %"class.llvm::RopePieceBTreeIterator", ptr %4, i32 0, i32 1
  %6 = load ptr, ptr %5, align 8
  %7 = call noundef nonnull align 1 dereferenceable(1) ptr @_ZNK4llvm9RopePieceixEj(ptr noundef nonnull align 8 dereferenceable(16) %6, i32 noundef 0)
  %8 = getelementptr inbounds nuw %"class.llvm::RopePieceBTreeIterator", ptr %4, i32 0, i32 1
  %9 = load ptr, ptr %8, align 8
  %10 = call noundef i32 @_ZNK4llvm9RopePiece4sizeEv(ptr noundef nonnull align 8 dereferenceable(16) %9)
  %11 = zext i32 %10 to i64
  call void @_ZN4llvm9StringRefC2EPKcm(ptr noundef nonnull align 8 dereferenceable(16) %2, ptr noundef %7, i64 noundef %11)
  %12 = load { ptr, i64 }, ptr %2, align 8
  ret { ptr, i64 } %12
}

; Function Attrs: mustprogress nounwind uwtable
define linkonce_odr hidden noundef zeroext i1 @_ZNK4llvm22RopePieceBTreeIteratorneERKS0_(ptr noundef nonnull align 8 dereferenceable(20) %0, ptr noundef nonnull align 8 dereferenceable(20) %1) #0 comdat align 2 {
  %3 = alloca ptr, align 8
  %4 = alloca ptr, align 8
  store ptr %0, ptr %3, align 8
  store ptr %1, ptr %4, align 8
  %5 = load ptr, ptr %3, align 8
  %6 = load ptr, ptr %4, align 8
  %7 = call noundef zeroext i1 @_ZNK4llvm22RopePieceBTreeIteratoreqERKS0_(ptr noundef nonnull align 8 dereferenceable(20) %5, ptr noundef nonnull align 8 dereferenceable(20) %6)
  %8 = xor i1 %7, true
  ret i1 %8
}

; Function Attrs: mustprogress nounwind uwtable
define linkonce_odr hidden void @_ZNK4llvm13RewriteBuffer3endEv(ptr dead_on_unwind noalias writable sret(%"class.llvm::RopePieceBTreeIterator") align 8 %0, ptr noundef nonnull align 8 dereferenceable(32) %1) #0 comdat align 2 {
  %3 = alloca ptr, align 8
  store ptr %1, ptr %3, align 8
  %4 = load ptr, ptr %3, align 8
  %5 = getelementptr inbounds nuw %"class.llvm::RewriteBuffer", ptr %4, i32 0, i32 1
  call void @_ZNK4llvm11RewriteRope3endEv(ptr dead_on_unwind writable sret(%"class.llvm::RopePieceBTreeIterator") align 8 %0, ptr noundef nonnull align 8 dereferenceable(20) %5)
  ret void
}

; Function Attrs: mustprogress nounwind uwtable
define linkonce_odr hidden void @_ZNK4llvm13RewriteBuffer5beginEv(ptr dead_on_unwind noalias writable sret(%"class.llvm::RopePieceBTreeIterator") align 8 %0, ptr noundef nonnull align 8 dereferenceable(32) %1) #0 comdat align 2 {
  %3 = alloca ptr, align 8
  store ptr %1, ptr %3, align 8
  %4 = load ptr, ptr %3, align 8
  %5 = getelementptr inbounds nuw %"class.llvm::RewriteBuffer", ptr %4, i32 0, i32 1
  call void @_ZNK4llvm11RewriteRope5beginEv(ptr dead_on_unwind writable sret(%"class.llvm::RopePieceBTreeIterator") align 8 %0, ptr noundef nonnull align 8 dereferenceable(20) %5)
  ret void
}

; Function Attrs: mustprogress nounwind uwtable
define dso_local noundef nonnull align 8 dereferenceable(48) ptr @_ZNK4llvm13RewriteBuffer5writeERNS_11raw_ostreamE(ptr noundef nonnull align 8 dereferenceable(32) %0, ptr noundef nonnull align 8 dereferenceable(48) %1) #0 align 2 {
  %3 = alloca ptr, align 8
  %4 = alloca ptr, align 8
  %5 = alloca %"class.llvm::RopePieceBTreeIterator", align 8
  %6 = alloca %"class.llvm::RopePieceBTreeIterator", align 8
  %7 = alloca %"class.llvm::StringRef", align 8
  store ptr %0, ptr %3, align 8
  store ptr %1, ptr %4, align 8
  %8 = load ptr, ptr %3, align 8
  call void @_ZNK4llvm13RewriteBuffer5beginEv(ptr dead_on_unwind writable sret(%"class.llvm::RopePieceBTreeIterator") align 8 %5, ptr noundef nonnull align 8 dereferenceable(32) %8)
  call void @_ZNK4llvm13RewriteBuffer3endEv(ptr dead_on_unwind writable sret(%"class.llvm::RopePieceBTreeIterator") align 8 %6, ptr noundef nonnull align 8 dereferenceable(32) %8)
  br label %9

9:                                                ; preds = %23, %2
  %10 = call noundef zeroext i1 @_ZNK4llvm22RopePieceBTreeIteratorneERKS0_(ptr noundef nonnull align 8 dereferenceable(20) %5, ptr noundef nonnull align 8 dereferenceable(20) %6)
  br i1 %10, label %11, label %24

11:                                               ; preds = %9
  %12 = load ptr, ptr %4, align 8
  %13 = call { ptr, i64 } @_ZNK4llvm22RopePieceBTreeIterator5pieceEv(ptr noundef nonnull align 8 dereferenceable(20) %5)
  %14 = getelementptr inbounds nuw { ptr, i64 }, ptr %7, i32 0, i32 0
  %15 = extractvalue { ptr, i64 } %13, 0
  store ptr %15, ptr %14, align 8
  %16 = getelementptr inbounds nuw { ptr, i64 }, ptr %7, i32 0, i32 1
  %17 = extractvalue { ptr, i64 } %13, 1
  store i64 %17, ptr %16, align 8
  %18 = getelementptr inbounds nuw { ptr, i64 }, ptr %7, i32 0, i32 0
  %19 = load ptr, ptr %18, align 8
  %20 = getelementptr inbounds nuw { ptr, i64 }, ptr %7, i32 0, i32 1
  %21 = load i64, ptr %20, align 8
  %22 = call noundef nonnull align 8 dereferenceable(48) ptr @_ZN4llvm11raw_ostreamlsENS_9StringRefE(ptr noundef nonnull align 8 dereferenceable(48) %12, ptr %19, i64 %21)
  br label %23

23:                                               ; preds = %11
  call void @_ZN4llvm22RopePieceBTreeIterator15MoveToNextPieceEv(ptr noundef nonnull align 8 dereferenceable(20) %5)
  br label %9, !llvm.loop !4

24:                                               ; preds = %9
  %25 = load ptr, ptr %4, align 8
  ret ptr %25
}