; Function Attrs: mustprogress nounwind uwtable
define dso_local noundef nonnull align 8 dereferenceable(48) ptr @_ZNK4llvm13RewriteBuffer5writeERNS_11raw_ostreamE(ptr nocapture noundef nonnull readonly align 8 dereferenceable(32) %0, ptr noundef nonnull returned align 8 dereferenceable(48) %1) local_unnamed_addr #0 align 2 {
  %3 = alloca %"class.llvm::RopePieceBTreeIterator", align 8
  %4 = getelementptr inbounds nuw i8, ptr %0, i64 8
  %5 = load ptr, ptr %4, align 8, !noalias !4
  call void @_ZN4llvm22RopePieceBTreeIteratorC1EPKv(ptr noundef nonnull align 8 dereferenceable(20) %3, ptr noundef %5) #5
  %6 = getelementptr inbounds nuw i8, ptr %3, i64 8
  %7 = getelementptr inbounds nuw i8, ptr %3, i64 16
  %8 = load ptr, ptr %6, align 8
  %9 = icmp ne ptr %8, null
  %10 = load i32, ptr %7, align 8
  %11 = icmp ne i32 %10, 0
  %.not3.i3 = select i1 %9, i1 true, i1 %11
  br i1 %.not3.i3, label %.lr.ph, label %._crit_edge

.lr.ph:                                           ; preds = %2
  %12 = getelementptr inbounds nuw i8, ptr %1, i64 24
  %13 = getelementptr inbounds nuw i8, ptr %1, i64 32
  br label %14

14:                                               ; preds = %.lr.ph, %_ZN4llvm11raw_ostreamlsENS_9StringRefE.exit
  %15 = phi ptr [ %8, %.lr.ph ], [ %38, %_ZN4llvm11raw_ostreamlsENS_9StringRefE.exit ]
  %16 = load ptr, ptr %15, align 8
  %17 = getelementptr inbounds nuw i8, ptr %16, i64 4
  %18 = getelementptr inbounds nuw i8, ptr %15, i64 8
  %19 = load i32, ptr %18, align 8
  %20 = zext i32 %19 to i64
  %21 = getelementptr inbounds [1 x i8], ptr %17, i64 0, i64 %20
  %22 = getelementptr inbounds nuw i8, ptr %15, i64 12
  %23 = load i32, ptr %22, align 4
  %24 = sub i32 %23, %19
  %25 = zext i32 %24 to i64
  %26 = load ptr, ptr %12, align 8
  %27 = load ptr, ptr %13, align 8
  %28 = ptrtoint ptr %26 to i64
  %29 = ptrtoint ptr %27 to i64
  %30 = sub i64 %28, %29
  %31 = icmp ult i64 %30, %25
  br i1 %31, label %32, label %34

32:                                               ; preds = %14
  %33 = call noundef nonnull align 8 dereferenceable(48) ptr @_ZN4llvm11raw_ostream5writeEPKcm(ptr noundef nonnull align 8 dereferenceable(48) %1, ptr noundef nonnull %21, i64 noundef %25) #5
  br label %_ZN4llvm11raw_ostreamlsENS_9StringRefE.exit

34:                                               ; preds = %14
  %.not.i = icmp eq i32 %23, %19
  br i1 %.not.i, label %_ZN4llvm11raw_ostreamlsENS_9StringRefE.exit, label %35

35:                                               ; preds = %34
  call void @llvm.memcpy.p0.p0.i64(ptr align 1 %27, ptr nonnull align 1 %21, i64 %25, i1 false)
  %36 = load ptr, ptr %13, align 8
  %37 = getelementptr inbounds i8, ptr %36, i64 %25
  store ptr %37, ptr %13, align 8
  br label %_ZN4llvm11raw_ostreamlsENS_9StringRefE.exit

_ZN4llvm11raw_ostreamlsENS_9StringRefE.exit:      ; preds = %32, %34, %35
  call void @_ZN4llvm22RopePieceBTreeIterator15MoveToNextPieceEv(ptr noundef nonnull align 8 dereferenceable(20) %3) #5
  %38 = load ptr, ptr %6, align 8
  %39 = icmp ne ptr %38, null
  %40 = load i32, ptr %7, align 8
  %41 = icmp ne i32 %40, 0
  %.not3.i = select i1 %39, i1 true, i1 %41
  br i1 %.not3.i, label %14, label %._crit_edge, !llvm.loop !11

._crit_edge:                                      ; preds = %_ZN4llvm11raw_ostreamlsENS_9StringRefE.exit, %2
  ret ptr %1
}